(lp1
F16.301603317260742
aF16.007835388183594
aF15.866427421569824
aF15.711893081665039
aF15.431235313415527
aF15.240524291992188
aF15.193379402160645
aF14.991751670837402
aF14.806184768676758
aF14.671343803405762
aF14.540743827819824
aF14.431357383728027
aF14.343240737915039
aF14.172866821289062
aF14.083000183105469
aF14.028090476989746
aF14.017239570617676
aF13.881103515625
aF13.794524192810059
aF13.7821044921875
aF13.684599876403809
aF13.615241050720215
aF13.687010765075684
aF13.586544990539551
aF13.348207473754883
aF13.386276245117188
aF13.36058521270752
aF13.29301643371582
aF13.325392723083496
aF13.362292289733887
aF13.214350700378418
aF13.15699291229248
aF13.162777900695801
aF13.174736022949219
aF13.176344871520996
aF13.16673469543457
aF13.111587524414062
aF13.030156135559082
aF13.076260566711426
aF12.961855888366699
aF12.968111991882324
aF12.97148609161377
aF13.023198127746582
aF12.889273643493652
aF12.742657661437988
aF12.829561233520508
aF12.738525390625
aF12.956601142883301
aF12.797760963439941
aF12.772109031677246
aF12.780964851379395
aF12.680170059204102
aF12.728719711303711
aF12.682517051696777
aF12.734908103942871
aF12.583022117614746
aF12.699910163879395
aF12.712380409240723
aF12.628168106079102
aF12.648581504821777
aF12.76154613494873
aF12.612554550170898
aF12.591561317443848
aF12.549818992614746
aF12.661444664001465
aF12.584564208984375
aF12.558538436889648
aF12.561419486999512
aF12.58895206451416
aF12.638442039489746
aF12.586652755737305
aF12.481345176696777
aF12.56214714050293
aF12.461652755737305
aF12.475466728210449
aF12.489470481872559
aF12.347590446472168
aF12.481169700622559
aF12.527623176574707
aF12.393634796142578
aF12.413406372070312
aF12.386274337768555
aF12.374368667602539
aF12.432045936584473
aF12.527680397033691
aF12.451301574707031
aF12.425749778747559
aF12.382403373718262
aF12.45317554473877
aF12.464942932128906
aF12.333258628845215
aF12.348288536071777
aF12.325288772583008
aF12.419431686401367
aF12.41774845123291
aF12.384459495544434
aF12.432080268859863
aF12.37122917175293
aF12.307945251464844
aF12.307497978210449
aF12.359686851501465
aF12.293856620788574
aF12.404597282409668
aF12.42275333404541
aF12.311493873596191
aF12.370610237121582
aF12.357908248901367
aF12.352957725524902
aF12.43179988861084
aF12.311003684997559
aF12.387771606445312
aF12.327032089233398
aF12.380500793457031
aF12.398333549499512
aF12.314431190490723
aF12.297435760498047
aF12.236811637878418
aF12.41243839263916
aF12.258489608764648
aF12.268740653991699
a.